Certificate:
    Data:
        Version: 3 (0x2)
        Serial Number: 1 (0x1)
        Signature Algorithm: sha256WithRSAEncryption
        Issuer: C=DE, ST=Docker, L=Home, O=Docker LAMP-Server, OU=Development, CN=localhost/emailAddress=webmaster@localhost
        Validity
            Not Before: Sep 27 11:08:08 2020 GMT
            Not After : Sep 25 11:08:08 2030 GMT
        Subject: C=DE, ST=Docker, L=Home, O=Docker LAMP-Server, OU=Development, CN=localhost
        Subject Public Key Info:
            Public Key Algorithm: rsaEncryption
                RSA Public-Key: (2048 bit)
                Modulus:
                    00:dd:84:c3:3a:2b:78:a5:51:2c:55:7f:5c:38:e3:
                    a2:66:60:ad:e5:9d:c2:eb:e6:a0:f9:02:3f:cf:ca:
                    1c:c3:c1:1f:98:03:ac:e8:99:e9:e7:a4:00:79:be:
                    8f:3b:15:6b:f6:5d:29:fe:af:25:0e:82:ca:51:ee:
                    84:d0:57:85:97:c8:ab:6a:ee:c5:de:ca:eb:6f:e5:
                    f3:1b:d6:35:84:1a:31:1e:1e:c7:b5:ed:35:68:e7:
                    26:ca:a7:d9:71:7a:1a:34:60:13:10:55:a3:cc:c7:
                    c9:4a:28:ce:9d:6b:6f:ae:84:91:6d:4b:9f:a2:6a:
                    17:9e:d2:34:31:59:1b:c3:fb:02:1e:21:58:e9:f6:
                    59:bc:e9:80:69:bf:00:00:d1:b6:a6:99:3f:fe:9a:
                    f0:d4:1e:79:7e:ca:06:eb:df:db:f2:fa:e2:f5:43:
                    46:2a:e3:c9:c0:a1:e2:b1:ba:15:2b:cc:3f:d3:5d:
                    cf:d9:f2:23:da:b9:6e:93:09:1f:02:b9:11:29:28:
                    7e:09:89:01:25:e2:9f:15:06:b7:ef:44:4f:8c:95:
                    3e:03:d5:b2:86:06:af:f3:7e:3f:02:e2:65:b9:4c:
                    71:16:78:06:28:c0:d5:c1:17:40:46:7f:64:b9:aa:
                    69:a1:99:b0:25:84:c8:29:dc:77:77:44:3c:72:4c:
                    3c:4d
                Exponent: 65537 (0x10001)
        X509v3 extensions:
            X509v3 Subject Key Identifier: 
                8B:8D:33:D7:A4:43:15:BE:E0:76:DA:BD:7F:BB:59:5D:8D:D9:3B:7A
            X509v3 Authority Key Identifier: 
                keyid:13:5D:0B:FC:8A:51:D1:C7:F1:8B:32:A1:49:38:55:72:CC:B6:00:7D

            X509v3 Basic Constraints: 
                CA:FALSE
            X509v3 Key Usage: 
                Digital Signature, Key Encipherment
            X509v3 Subject Alternative Name: 
                DNS:localhost, DNS:joomla.local, DNS:wp.local, DNS:wpms.local, DNS:*.joomla.local, DNS:*.wp.local, DNS:*.wpms.local, DNS:joomla.test, DNS:wp.test, DNS:wpms.test, DNS:*.joomla.test, DNS:*.wp.test, DNS:*.wpms.test, IP Address:127.0.0.1, IP Address:0:0:0:0:0:0:0:1
            Netscape Comment: 
                OpenSSL Generated Certificate
    Signature Algorithm: sha256WithRSAEncryption
         77:d5:3e:fc:cc:58:4c:a1:b9:31:4f:e4:56:d1:8e:a7:59:99:
         08:e9:01:eb:be:12:12:3a:2a:93:02:3b:82:10:e7:37:5a:12:
         fc:1f:05:5f:bf:94:d2:65:7d:00:35:9b:44:87:a2:aa:18:14:
         38:90:4f:89:df:d5:2b:03:a8:8a:bf:f0:e8:08:92:5d:c6:44:
         1c:52:90:04:29:2d:dc:46:78:f8:39:44:99:28:7d:19:90:0d:
         99:57:89:df:58:0b:0e:ae:24:30:e7:ea:9c:44:f0:b0:11:20:
         7f:ec:13:f4:42:97:fc:2a:2c:78:6a:77:c3:e0:4d:c5:72:73:
         12:17:28:5d:95:72:4e:d1:51:69:ed:c3:5f:ec:fd:c5:39:75:
         fa:93:78:64:eb:a2:46:c6:aa:1c:53:02:4a:56:f8:0d:c5:8e:
         3c:be:4e:d7:3b:24:5a:83:0a:c3:a8:30:87:e8:0b:e0:88:6c:
         fc:85:b1:c8:da:6c:41:51:fe:90:a3:b1:61:a9:6b:9e:2c:c3:
         a0:46:33:7c:90:f0:9d:03:9a:5f:9e:e8:f9:7f:e1:d8:de:e5:
         2e:85:40:36:e9:09:6b:74:7d:a3:55:20:a5:34:86:47:dd:6b:
         f3:53:0f:0e:5e:3c:12:fe:72:88:1b:a3:69:8a:58:95:a5:62:
         5d:ab:ce:6d:78:07:1c:76:90:64:5c:6f:56:f3:32:57:41:9f:
         57:53:3a:f9:ef:6d:f3:15:7f:cd:af:0b:cb:88:7f:bc:8d:11:
         a9:09:b4:98:8f:66:b3:32:c9:36:82:5d:28:49:f5:23:6f:1d:
         6d:c2:8c:4f:33:7d:f8:57:e6:8d:5e:5a:c3:51:a0:e3:38:32:
         91:2d:e2:10:3a:25:02:cb:3e:01:f7:e3:fa:f7:15:90:7c:fc:
         e3:0a:33:08:00:ca:e2:6f:04:3a:13:87:51:64:25:3d:74:51:
         60:37:93:9c:2e:6b:31:91:80:75:08:c5:5d:04:53:23:60:48:
         29:26:33:eb:aa:fa:c0:63:e1:3b:e6:4b:cb:26:59:a9:7f:f0:
         52:eb:63:ff:a9:83:a7:bb:fb:39:a4:e7:d7:b6:76:32:e4:75:
         00:c5:4c:6d:d0:16:a3:dd:2c:74:d1:02:d5:d9:5f:2b:8b:5f:
         f4:4b:17:61:9c:43:13:4b:2a:39:58:49:02:65:3b:61:db:7c:
         9c:40:c1:80:2a:66:22:a5:5a:77:08:68:c4:7a:5d:88:fa:01:
         cf:e4:b6:74:4e:2f:c5:ec:86:14:69:5e:86:49:89:37:5d:7d:
         e3:8e:da:19:8d:ac:99:37:58:7d:9d:92:1a:2f:71:b9:f4:fb:
         c6:57:2b:d8:ff:c8:0b:95
-----BEGIN CERTIFICATE-----
MIIF2zCCA8OgAwIBAgIBATANBgkqhkiG9w0BAQsFADCBmDELMAkGA1UEBhMCREUx
DzANBgNVBAgMBkRvY2tlcjENMAsGA1UEBwwESG9tZTEbMBkGA1UECgwSRG9ja2Vy
IExBTVAtU2VydmVyMRQwEgYDVQQLDAtEZXZlbG9wbWVudDESMBAGA1UEAwwJbG9j
YWxob3N0MSIwIAYJKoZIhvcNAQkBFhN3ZWJtYXN0ZXJAbG9jYWxob3N0MB4XDTIw
MDkyNzExMDgwOFoXDTMwMDkyNTExMDgwOFowdDELMAkGA1UEBhMCREUxDzANBgNV
BAgMBkRvY2tlcjENMAsGA1UEBwwESG9tZTEbMBkGA1UECgwSRG9ja2VyIExBTVAt
U2VydmVyMRQwEgYDVQQLDAtEZXZlbG9wbWVudDESMBAGA1UEAwwJbG9jYWxob3N0
MIIBIjANBgkqhkiG9w0BAQEFAAOCAQ8AMIIBCgKCAQEA3YTDOit4pVEsVX9cOOOi
ZmCt5Z3C6+ag+QI/z8ocw8EfmAOs6Jnp56QAeb6POxVr9l0p/q8lDoLKUe6E0FeF
l8irau7F3srrb+XzG9Y1hBoxHh7Hte01aOcmyqfZcXoaNGATEFWjzMfJSijOnWtv
roSRbUufomoXntI0MVkbw/sCHiFY6fZZvOmAab8AANG2ppk//prw1B55fsoG69/b
8vri9UNGKuPJwKHisboVK8w/013P2fIj2rlukwkfArkRKSh+CYkBJeKfFQa370RP
jJU+A9Wyhgav834/AuJluUxxFngGKMDVwRdARn9kuappoZmwJYTIKdx3d0Q8ckw8
TQIDAQABo4IBUTCCAU0wHQYDVR0OBBYEFIuNM9ekQxW+4HbavX+7WV2N2Tt6MB8G
A1UdIwQYMBaAFBNdC/yKUdHH8YsyoUk4VXLMtgB9MAkGA1UdEwQCMAAwCwYDVR0P
BAQDAgWgMIHEBgNVHREEgbwwgbmCCWxvY2FsaG9zdIIMam9vbWxhLmxvY2Fsggh3
cC5sb2NhbIIKd3Btcy5sb2NhbIIOKi5qb29tbGEubG9jYWyCCioud3AubG9jYWyC
DCoud3Btcy5sb2NhbIILam9vbWxhLnRlc3SCB3dwLnRlc3SCCXdwbXMudGVzdIIN
Ki5qb29tbGEudGVzdIIJKi53cC50ZXN0ggsqLndwbXMudGVzdIcEfwAAAYcQAAAA
AAAAAAAAAAAAAAAAATAsBglghkgBhvhCAQ0EHxYdT3BlblNTTCBHZW5lcmF0ZWQg
Q2VydGlmaWNhdGUwDQYJKoZIhvcNAQELBQADggIBAHfVPvzMWEyhuTFP5FbRjqdZ
mQjpAeu+EhI6KpMCO4IQ5zdaEvwfBV+/lNJlfQA1m0SHoqoYFDiQT4nf1SsDqIq/
8OgIkl3GRBxSkAQpLdxGePg5RJkofRmQDZlXid9YCw6uJDDn6pxE8LARIH/sE/RC
l/wqLHhqd8PgTcVycxIXKF2Vck7RUWntw1/s/cU5dfqTeGTrokbGqhxTAkpW+A3F
jjy+Ttc7JFqDCsOoMIfoC+CIbPyFscjabEFR/pCjsWGpa54sw6BGM3yQ8J0Dml+e
6Pl/4dje5S6FQDbpCWt0faNVIKU0hkfda/NTDw5ePBL+cogbo2mKWJWlYl2rzm14
Bxx2kGRcb1bzMldBn1dTOvnvbfMVf82vC8uIf7yNEakJtJiPZrMyyTaCXShJ9SNv
HW3CjE8zffhX5o1eWsNRoOM4MpEt4hA6JQLLPgH34/r3FZB8/OMKMwgAyuJvBDoT
h1FkJT10UWA3k5wuazGRgHUIxV0EUyNgSCkmM+uq+sBj4TvmS8smWal/8FLrY/+p
g6e7+zmk59e2djLkdQDFTG3QFqPdLHTRAtXZXyuLX/RLF2GcQxNLKjlYSQJlO2Hb
fJxAwYAqZiKlWncIaMR6XYj6Ac/ktnROL8XshhRpXoZJiTddfeOO2hmNrJk3WH2d
khovcbn0+8ZXK9j/yAuV
-----END CERTIFICATE-----
